(dp0
(I1
I3
tp1
(dp2
S'down'
p3
F-0.49999962259759434
sS'right'
p4
F-0.49999965731458706
sS'up'
p5
F-0.49999959604914535
sS'left'
p6
F-0.49999960505455904
ss(I6
I6
tp7
(dp8
S'down'
p9
F-0.49999962689033667
sS'right'
p10
F-0.4999996268833203
sS'up'
p11
F-0.4999996249416102
sS'left'
p12
F-0.4999996310680148
ss(I3
I0
tp13
(dp14
g3
F-0.49999884463867295
sg4
F-0.49999881806305785
sg5
F-0.49999884485796914
sg6
F0.8630479235005735
ss(I3
I2
tp15
(dp16
g3
F13.22363762965254
sg4
F13.224314211064367
sg5
F13.224987968567088
sg6
I15
ss(I2
I1
tp17
(dp18
g9
F9.510981303944522
sg10
F-0.499998864616232
sg11
F-0.4999988773130235
sg12
F-0.4999988708605637
ss(I0
I0
tp19
(dp20
g9
F-0.4999993667213035
sg10
F10.929477842416041
sg11
F-0.49999917635987345
sg12
F-0.49999929951293737
ss(I1
I6
tp21
(dp22
g9
F-0.4999997159301033
sg10
F-0.4999996879528683
sg11
F-0.4999996942738013
sg12
F-0.4999997664603629
ss(I5
I1
tp23
(dp24
g3
F11.506301591495125
sg4
F43.1
sg5
I15
sg6
I15
ss(I2
I5
tp25
(dp26
g3
F-0.49999969699826174
sg4
F-0.49999968017009505
sg5
F-0.49999967521030675
sg6
F-0.4999997118543936
ss(I0
I3
tp27
(dp28
g3
F-0.49999961386238506
sg4
F-0.4999995518173921
sg5
F5.35172197674964
sg6
F-0.4999995964784698
ss(I4
I0
tp29
(dp30
g3
F22.04325752424774
sg4
I15
sg5
I15
sg6
I15
ss(I1
I2
tp31
(dp32
g3
F-0.4999995863241201
sg4
F-0.49999951783850816
sg5
F-0.49999951685737465
sg6
F2.963260754814833
ss(I3
I3
tp33
(dp34
S'down'
p35
I15
sS'right'
p36
I15
sS'up'
p37
I15
sS'left'
p38
I15
ss(I1
I5
tp39
(dp40
g3
F-0.4999996983509789
sg4
F-0.4999996985478368
sg5
F-0.4999996853543047
sg6
F-0.49999968317511334
ss(I4
I4
tp41
(dp42
g9
F-0.49999969222322294
sg10
F-0.49999965382875156
sg11
F-0.49999967599032324
sg12
F-0.4999996773609654
ss(I6
I3
tp43
(dp44
g35
I15
sg36
I15
sg37
I15
sg38
I15
ss(I5
I6
tp45
(dp46
g9
F-0.4999996781361424
sg10
F-0.49999962745114074
sg11
F-0.49999962893331085
sg12
F-0.4999996823261034
ss(I3
I6
tp47
(dp48
g9
F-0.4999996437386901
sg10
F-0.49999968321326405
sg11
F-0.4999996894441321
sg12
F-0.49999969702276387
ss(I2
I2
tp49
(dp50
g35
F6.299462124318994
sg36
F13.26096952455839
sg37
F9.43125227398857
sg38
F6.501014781607426
ss(I3
I5
tp51
(dp52
g9
F-0.49999968561853436
sg10
F-0.49999966702302945
sg11
F-0.4999996780504576
sg12
F-0.49999969985171167
ss(I4
I1
tp53
(dp54
g3
F10.191223392539031
sg4
F34.38
sg5
F12.46680034968875
sg6
F12.466800360486488
ss(I1
I1
tp55
(dp56
g35
I15
sg36
I15
sg37
I15
sg38
I15
ss(I6
I4
tp57
(dp58
g9
F-0.4999996258263239
sg10
F-0.49999965191651957
sg11
F-0.4999996493996923
sg12
F-0.4999996721322938
ss(I5
I4
tp59
(dp60
g3
F-0.49999967192318007
sg4
F-0.4999996499600189
sg5
F-0.4999996748371649
sg6
F-0.49999967643108745
ss(I2
I6
tp61
(dp62
g3
F-0.4999996625197791
sg4
F-0.4999996901608474
sg5
F-0.4999997058667658
sg6
F-0.49999969263345767
ss(I5
I0
tp63
(dp64
g35
I15
sg36
I15
sg37
I15
sg38
I15
ss(I4
I5
tp65
(dp66
g3
F-0.4999996783856484
sg4
F-0.49999966973450966
sg5
F-0.4999996678024261
sg6
F-0.4999996844726411
ss(I0
I4
tp67
(dp68
g3
F-0.4999996473518682
sg4
F-0.4999996606552494
sg5
F4.180906649996821
sg6
F-0.499999657125749
ss(I5
I5
tp69
(dp70
g3
F-0.4999996233832351
sg4
F-0.49999967643075915
sg5
F-0.49999967419734614
sg6
F-0.49999967630791303
ss(I1
I4
tp71
(dp72
g3
F-0.4999996837687285
sg4
F-0.4999996578199523
sg5
F-0.4999996477129932
sg6
F-0.4999996611359423
ss(I6
I0
tp73
(dp74
g9
I30
sg10
I30
sg11
I30
sg12
I30
ss(I2
I3
tp75
(dp76
g3
F-0.49999969733480826
sg4
F-0.49999965413495057
sg5
F6.45827268249387
sg6
F-0.49999965430832516
ss(I2
I4
tp77
(dp78
g9
F-0.4999997013615394
sg10
F-0.49999967978397486
sg11
F-0.4999996607390589
sg12
F-0.4999996633116999
ss(I4
I2
tp79
(dp80
g35
I15
sg36
I15
sg37
I15
sg38
I15
ss(I1
I0
tp81
(dp82
g9
F-0.499999055430803
sg10
F5.791772098652446
sg11
F-0.4999991082310269
sg12
F-0.4999991492188243
ss(I6
I5
tp83
(dp84
g9
F-0.4999996302168762
sg10
F-0.49999962569932876
sg11
F-0.4999996251647073
sg12
F-0.49999967521301314
ss(I5
I3
tp85
(dp86
g35
I15
sg36
I15
sg37
I15
sg38
I15
ss(I0
I1
tp87
(dp88
g9
F-0.4999993591927115
sg10
F-0.4999994082475492
sg11
F8.643578901971413
sg12
F-0.4999993970741066
ss(I4
I6
tp89
(dp90
g9
F-0.49999967865427797
sg10
F-0.49999967935351197
sg11
F-0.49999968396275746
sg12
F-0.49999968556581753
ss(I3
I4
tp91
(dp92
g3
F-0.4999996872222626
sg4
F-0.4999996801441804
sg5
F-0.49999967553106556
sg6
F-0.4999996825167705
ss(I6
I1
tp93
(dp94
g9
F0.026945387363466952
sg10
F0.027146652359009787
sg11
F54.0
sg12
F0.1
ss(I3
I1
tp95
(dp96
g3
F13.222958201649535
sg4
F27.403999999929752
sg5
I15
sg6
I15
ss(I0
I6
tp97
(dp98
g9
F-0.49999973746784565
sg10
F-0.4999997411151103
sg11
F2.491886529745185
sg12
F-0.49999973588982716
ss(I2
I0
tp99
(dp100
g9
F-0.4999989549246608
sg10
F2.6523232827346965
sg11
F-0.499998917387933
sg12
F-0.4999988593713113
ss(I6
I2
tp101
(dp102
g3
I15
sg4
I15
sg5
I15
sg6
I15
ss(I4
I3
tp103
(dp104
g3
F-0.49999967985594496
sg4
F-0.4999996752713981
sg5
F-0.49999967594761774
sg6
F-0.4999996755715074
ss(I0
I5
tp105
(dp106
g3
F-0.4999996996333536
sg4
F-0.49999971027043383
sg5
F3.243421713082107
sg6
F-0.49999968059270433
ss(I5
I2
tp107
(dp108
g9
F-0.49999339777837926
sg10
F-0.49999342324098195
sg11
F-0.4999933042343876
sg12
F21.82319999945701
ss(I0
I2
tp109
(dp110
g3
F-0.4999995494960889
sg4
F-0.49999945236604737
sg5
F6.814845329073483
sg6
F-0.49999948177021614
ss.