(dp0
(I1
I3
tp1
(dp2
S'down'
p3
F-0.3460666487229755
sS'right'
p4
F-0.3584904905602991
sS'up'
p5
F1.8603279134618331
sS'left'
p6
F-0.3400581847873092
ss(I6
I6
tp7
(dp8
S'down'
p9
F-0.3861987494411917
sS'right'
p10
F-0.38830236562847936
sS'up'
p11
F-0.3984439658384739
sS'left'
p12
F-0.4077087569737451
ss(I3
I0
tp13
(dp14
S'down'
p15
F20.728751723502715
sS'right'
p16
F21.82319990789386
sS'up'
p17
F17.312174397559115
sS'left'
p18
F13.68105659789406
ss(I3
I2
tp19
(dp20
g3
F4.055568746154687
sg4
F0.2745260487392691
sg5
F17.094199281237362
sg6
F0.37502344219992667
ss(I2
I1
tp21
(dp22
g9
F12.309931825773656
sg10
F20.578887345231593
sg11
F9.251836635418345
sg12
F6.401071082583539
ss(I0
I0
tp23
(dp24
g9
F0.7784996818766695
sg10
F10.929361397175857
sg11
F-0.20469736032751853
sg12
F-0.2234940829172794
ss(I1
I6
tp25
(dp26
g9
F-0.41252356045177446
sg10
F-0.40295149261676616
sg11
F-0.40074790102477925
sg12
F-0.4126772714213005
ss(I5
I1
tp27
(dp28
g9
F27.403998928904695
sg10
F43.09999999999886
sg11
F34.92607409681376
sg12
F27.40397797836515
ss(I2
I5
tp29
(dp30
g9
F-0.3992758308615036
sg10
F-0.39326805290109823
sg11
F-0.3922736884550604
sg12
F-0.3968419698020398
ss(I0
I3
tp31
(dp32
g9
F2.7539349897979877
sg10
F0.23988478910045835
sg11
F5.3205313377055905
sg12
F-0.31550896527886624
ss(I4
I0
tp33
(dp34
g3
F27.403999999311456
sg4
F21.741305143095456
sg5
F21.730984521651457
sg6
F17.283906185142026
ss(I1
I2
tp35
(dp36
g3
F-0.3443412454294576
sg4
F-0.3154100550363134
sg5
F-0.3082678669450254
sg6
F4.476488687268863
ss(I3
I3
tp37
(dp38
g9
F13.030769940318763
sg10
F17.117322741549454
sg11
F3.937046996042405
sg12
F5.831441266345383
ss(I1
I5
tp39
(dp40
g3
F-0.4194414158256251
sg4
F-0.37644770845770487
sg5
F-0.3855791274776662
sg6
F0.7837786589145743
ss(I4
I4
tp41
(dp42
g9
F-0.39431967677428026
sg10
F-0.39731886209455414
sg11
F-0.41509975417071976
sg12
F-0.4005359420554513
ss(I6
I3
tp43
(dp44
g15
I15
sg16
I15
sg17
I15
sg18
I15
ss(I5
I6
tp45
(dp46
g9
F-0.39526636731844383
sg10
F-0.39315305846284965
sg11
F-0.40039314282488647
sg12
F-0.40602938335970157
ss(I3
I6
tp47
(dp48
g9
F-0.3956543163860956
sg10
F-0.4018731028238951
sg11
F-0.391120881619206
sg12
F-0.4043665264231227
ss(I2
I2
tp49
(dp50
g15
I15
sg16
I15
sg17
I15
sg18
I15
ss(I3
I5
tp51
(dp52
g9
F-0.40221665762218695
sg10
F-0.3894402759197653
sg11
F-0.3861016904576531
sg12
F-0.40076091196849073
ss(I4
I1
tp53
(dp54
g9
F24.94685048518778
sg10
F34.379999999983454
sg11
F21.843842972890485
sg12
F20.970154968588492
ss(I1
I1
tp55
(dp56
g15
I15
sg16
I15
sg17
I15
sg18
I15
ss(I6
I4
tp57
(dp58
g9
F-0.4046224768440153
sg10
F-0.39864393515274177
sg11
F-0.40543682223685773
sg12
F-0.40501609759506396
ss(I5
I4
tp59
(dp60
g3
F-0.3972128598162349
sg4
F-0.40139178430294575
sg5
F-0.39776384284602007
sg6
F-0.40802336551016893
ss(I2
I6
tp61
(dp62
g3
F-0.39822196432583634
sg4
F-0.3951679786739195
sg5
F-0.4003879283343368
sg6
F-0.4165666524311452
ss(I5
I0
tp63
(dp64
g9
F34.378145146345275
sg10
F54.0
sg11
F43.06861436721797
sg12
F11.334339502007994
ss(I4
I5
tp65
(dp66
g15
F-0.4035227333117481
sg16
F-0.40168990648495084
sg17
F-0.39388128886834806
sg18
F-0.39077361872264815
ss(I0
I4
tp67
(dp68
g9
F2.0540083352511194
sg10
F-0.36985817078259603
sg11
F4.146036605530787
sg12
F1.815900636674799
ss(I5
I5
tp69
(dp70
g3
F-0.39610663877304575
sg4
F-0.41003916275745
sg5
F-0.40043669146061805
sg6
F-0.3883144039560743
ss(I1
I4
tp71
(dp72
g3
F-0.3815558490849704
sg4
F-0.3727958942168743
sg5
F0.260565800546834
sg6
F-0.37171084929697545
ss(I6
I0
tp73
(dp74
g9
I30
sg10
I30
sg11
I30
sg12
I30
ss(I2
I3
tp75
(dp76
g9
F-0.3939162947073761
sg10
F-0.36609392531676777
sg11
F-0.3703150503332061
sg12
F-0.32676794604734405
ss(I2
I4
tp77
(dp78
g9
F-0.38272434411986694
sg10
F-0.4059283315103074
sg11
F-0.37968995371192016
sg12
F-0.37820947460832927
ss(I4
I2
tp79
(dp80
g15
I15
sg16
I15
sg17
I15
sg18
I15
ss(I1
I0
tp81
(dp82
g9
F9.321937932092236
sg10
F13.786843214527565
sg11
F6.063173769645171
sg12
F-0.11294149033976669
ss(I6
I5
tp83
(dp84
g9
F-0.3939550106248801
sg10
F-0.4065321712178522
sg11
F-0.404906844097567
sg12
F-0.4075629956261432
ss(I5
I3
tp85
(dp86
g9
F17.20266054721621
sg10
F19.972876713365068
sg11
F27.404000000000003
sg12
F18.835425148207225
ss(I0
I1
tp87
(dp88
g9
F-0.29424851867746205
sg10
F0.7841484114529702
sg11
F8.642532262408931
sg12
F4.23195880594982
ss(I4
I6
tp89
(dp90
g9
F-0.40152293371631415
sg10
F-0.3999143357738257
sg11
F-0.3949494147093849
sg12
F-0.40512964254765615
ss(I3
I4
tp91
(dp92
g15
F-0.40182824184575605
sg16
F-0.405821128570855
sg17
F-0.3999531378317465
sg18
F-0.39438852196164986
ss(I6
I1
tp93
(dp94
g9
F33.56507230245404
sg10
F42.44050604578023
sg11
F53.99999999999997
sg12
F34.27689295264623
ss(I3
I1
tp95
(dp96
g3
F6.742404438093787
sg4
F27.238411101414716
sg5
F17.22021330098562
sg6
F11.955903349819005
ss(I0
I6
tp97
(dp98
g9
F-0.4105974633449891
sg10
F-0.41005691126148297
sg11
F2.392693251172513
sg12
F-0.41070503827355065
ss(I2
I0
tp99
(dp100
g9
F12.011432681625552
sg10
F17.358559173443105
sg11
F10.236240320890163
sg12
F10.72257075018734
ss(I6
I2
tp101
(dp102
g3
F22.193245104282425
sg4
F33.7409094955424
sg5
F43.075254627215116
sg6
F26.785180915754506
ss(I4
I3
tp103
(dp104
g3
F-0.41281233260132477
sg4
F-0.41964049303254414
sg5
F-0.41931476253194017
sg6
F-0.4089969692379919
ss(I0
I5
tp105
(dp106
g9
F1.3969733795176926
sg10
F0.3571562614052484
sg11
F3.1367743726685653
sg12
F-0.3902657559652784
ss(I5
I2
tp107
(dp108
g9
F26.516702841492418
sg10
F34.192957667665596
sg11
F34.37999992283026
sg12
F27.400927382828456
ss(I0
I2
tp109
(dp110
g9
F-0.2957855578766485
sg10
F-0.3082009131063437
sg11
F6.809324760044243
sg12
F-0.3056081576107563
ss.